; Function Attrs: mustprogress ssp uwtable
define noundef zeroext i1 @_ZNK6open3d4core6Device11IsAvailableEv(ptr noundef nonnull readonly align 4 captures(none) dereferenceable(8) %0) local_unnamed_addr #0 align 2 personality ptr @__gxx_personality_v0 {
  %2 = alloca %"class.std::vector.112", align 8
  call void @llvm.lifetime.start.p0(i64 24, ptr nonnull %2) #30
  call void @_ZN6open3d4core6Device19GetAvailableDevicesEv(ptr dead_on_unwind nonnull writable sret(%"class.std::vector.112") align 8 %2)
  %3 = load ptr, ptr %2, align 8, !tbaa !633
  %4 = getelementptr inbounds nuw i8, ptr %2, i64 8
  %5 = load ptr, ptr %4, align 8, !tbaa !633
  %.not11.not = icmp eq ptr %3, %5
  br i1 %.not11.not, label %._crit_edge, label %.lr.ph

.lr.ph:                                           ; preds = %1
  %6 = load i32, ptr %0, align 4, !tbaa !4
  %7 = getelementptr inbounds nuw i8, ptr %0, i64 4
  %8 = load i32, ptr %7, align 4
  br label %9

9:                                                ; preds = %9, %.lr.ph
  %.sroa.08.012 = phi ptr [ %3, %.lr.ph ], [ %16, %9 ]
  %10 = load i32, ptr %.sroa.08.012, align 4, !tbaa !4
  %11 = icmp eq i32 %10, %6
  %12 = getelementptr inbounds nuw i8, ptr %.sroa.08.012, i64 4
  %13 = load i32, ptr %12, align 4
  %14 = icmp eq i32 %13, %8
  %15 = select i1 %11, i1 %14, i1 false
  %16 = getelementptr inbounds nuw i8, ptr %.sroa.08.012, i64 8
  %.not.not = icmp eq ptr %16, %5
  %or.cond = select i1 %15, i1 true, i1 %.not.not
  br i1 %or.cond, label %._crit_edge, label %9

._crit_edge:                                      ; preds = %9, %1
  %.not.lcssa = phi i1 [ false, %1 ], [ %15, %9 ]
  %.not.i.i.i = icmp eq ptr %3, null
  br i1 %.not.i.i.i, label %_ZNSt6vectorIN6open3d4core6DeviceESaIS2_EED2Ev.exit, label %17

17:                                               ; preds = %._crit_edge
  %18 = getelementptr inbounds nuw i8, ptr %2, i64 16
  %19 = load ptr, ptr %18, align 8, !tbaa !635
  %20 = ptrtoint ptr %19 to i64
  %21 = ptrtoint ptr %3 to i64
  %22 = sub i64 %20, %21
  call void @_ZdlPvm(ptr noundef nonnull %3, i64 noundef %22) #31
  br label %_ZNSt6vectorIN6open3d4core6DeviceESaIS2_EED2Ev.exit

_ZNSt6vectorIN6open3d4core6DeviceESaIS2_EED2Ev.exit: ; preds = %._crit_edge, %17
  call void @llvm.lifetime.end.p0(i64 24, ptr nonnull %2) #30
  ret i1 %.not.lcssa
}